target datalayout = "e-m:e-p270:32:32-p271:32:32-p272:64:64-i64:64-i128:128-f80:128-n8:16:32:64-S128"
target triple = "x86_64-pc-linux-gnu"

%struct.ARKodeMRIStepMemRec = type { ptr, ptr, i32, i32, i32, i32, i32, ptr, ptr, i32, i32, i32, ptr, i32, i32, i32, i32, i32, ptr, ptr, ptr, ptr, ptr, ptr, ptr, i32, ptr, i32, ptr, double, double, double, double, i32, double, double, double, double, double, double, i32, i64, i32, i32, i32, ptr, ptr, ptr, ptr, ptr, ptr, ptr, ptr, ptr, double, double, double, i64, i64, i64, i64, i64, i64, i32, i32, i32, double, double, ptr, i32, ptr, ptr }
%struct.ARKodeMemRec = type { ptr, double, ptr, i32, i32, double, double, ptr, i32, double, ptr, i32, i32, ptr, ptr, i32, ptr, ptr, i32, ptr, ptr, ptr, ptr, ptr, ptr, ptr, ptr, ptr, ptr, ptr, ptr, ptr, ptr, ptr, i32, ptr, ptr, i32, ptr, i32, ptr, ptr, ptr, ptr, ptr, ptr, ptr, ptr, ptr, ptr, ptr, ptr, ptr, ptr, ptr, ptr, ptr, ptr, ptr, ptr, ptr, ptr, ptr, ptr, ptr, ptr, i32, ptr, ptr, ptr, ptr, ptr, ptr, ptr, i32, ptr, ptr, ptr, i32, ptr, ptr, ptr, ptr, ptr, ptr, ptr, i32, i32, i32, i32, double, double, double, double, double, double, double, double, double, double, i32, ptr, i64, i32, i32, i32, i32, i64, i64, i32, i64, i64, i64, i64, i64, i64, i64, double, double, double, double, double, i32, double, double, i32, i32, i32, i32, i32, i32, i32, i32, ptr, i32, ptr, ptr, ptr, ptr, i32, i32, i32 }

@__func__.mriStep_NlsFPFunction = private unnamed_addr constant [22 x i8] c"mriStep_NlsFPFunction\00", align 1

; Function Attrs: nounwind uwtable
define i32 @mriStep_NlsFPFunction(ptr noundef %0, ptr noundef %1, ptr noundef %2) #0 {
  %4 = alloca i32, align 4
  %5 = alloca ptr, align 8
  %6 = alloca ptr, align 8
  %7 = alloca ptr, align 8
  %8 = alloca ptr, align 8
  %9 = alloca ptr, align 8
  %10 = alloca i32, align 4
  %11 = alloca i32, align 4
  store ptr %0, ptr %5, align 8, !tbaa !37
  store ptr %1, ptr %6, align 8, !tbaa !37
  store ptr %2, ptr %7, align 8, !tbaa !38
  call void @llvm.lifetime.start.p0(i64 8, ptr %8) #4
  call void @llvm.lifetime.start.p0(i64 8, ptr %9) #4
  call void @llvm.lifetime.start.p0(i64 4, ptr %10) #4
  %12 = load ptr, ptr %7, align 8, !tbaa !38
  %13 = call i32 @mriStep_AccessARKODEStepMem(ptr noundef %12, ptr noundef @__func__.mriStep_NlsFPFunction, ptr noundef %8, ptr noundef %9)
  store i32 %13, ptr %10, align 4, !tbaa !10
  %14 = load i32, ptr %10, align 4, !tbaa !10
  %15 = icmp ne i32 %14, 0
  br i1 %15, label %16, label %18

16:                                               ; preds = %3
  %17 = load i32, ptr %10, align 4, !tbaa !10
  store i32 %17, ptr %4, align 4
  store i32 1, ptr %11, align 4
  br label %88

18:                                               ; preds = %3
  %19 = load ptr, ptr %9, align 8, !tbaa !20
  %20 = getelementptr inbounds nuw %struct.ARKodeMRIStepMemRec, ptr %19, i32 0, i32 23
  %21 = load ptr, ptr %20, align 8, !tbaa !39
  %22 = load ptr, ptr %5, align 8, !tbaa !37
  %23 = load ptr, ptr %8, align 8, !tbaa !3
  %24 = getelementptr inbounds nuw %struct.ARKodeMemRec, ptr %23, i32 0, i32 75
  %25 = load ptr, ptr %24, align 8, !tbaa !40
  call void @N_VLinearSum(double noundef 1.000000e+00, ptr noundef %21, double noundef 1.000000e+00, ptr noundef %22, ptr noundef %25)
  %26 = load ptr, ptr %9, align 8, !tbaa !20
  %27 = getelementptr inbounds nuw %struct.ARKodeMRIStepMemRec, ptr %26, i32 0, i32 28
  %28 = load ptr, ptr %27, align 8, !tbaa !34
  %29 = load ptr, ptr %8, align 8, !tbaa !3
  %30 = getelementptr inbounds nuw %struct.ARKodeMemRec, ptr %29, i32 0, i32 98
  %31 = load double, ptr %30, align 8, !tbaa !46
  %32 = load ptr, ptr %8, align 8, !tbaa !3
  %33 = getelementptr inbounds nuw %struct.ARKodeMemRec, ptr %32, i32 0, i32 75
  %34 = load ptr, ptr %33, align 8, !tbaa !40
  %35 = load ptr, ptr %9, align 8, !tbaa !20
  %36 = getelementptr inbounds nuw %struct.ARKodeMRIStepMemRec, ptr %35, i32 0, i32 8
  %37 = load ptr, ptr %36, align 8, !tbaa !47
  %38 = load ptr, ptr %9, align 8, !tbaa !20
  %39 = getelementptr inbounds nuw %struct.ARKodeMRIStepMemRec, ptr %38, i32 0, i32 18
  %40 = load ptr, ptr %39, align 8, !tbaa !48
  %41 = load ptr, ptr %9, align 8, !tbaa !20
  %42 = getelementptr inbounds nuw %struct.ARKodeMRIStepMemRec, ptr %41, i32 0, i32 25
  %43 = load i32, ptr %42, align 8, !tbaa !49
  %44 = sext i32 %43 to i64
  %45 = getelementptr inbounds i32, ptr %40, i64 %44
  %46 = load i32, ptr %45, align 4, !tbaa !10
  %47 = sext i32 %46 to i64
  %48 = getelementptr inbounds ptr, ptr %37, i64 %47
  %49 = load ptr, ptr %48, align 8, !tbaa !37
  %50 = load ptr, ptr %8, align 8, !tbaa !3
  %51 = getelementptr inbounds nuw %struct.ARKodeMemRec, ptr %50, i32 0, i32 2
  %52 = load ptr, ptr %51, align 8, !tbaa !50
  %53 = call i32 %28(double noundef %31, ptr noundef %34, ptr noundef %49, ptr noundef %52)
  store i32 %53, ptr %10, align 4, !tbaa !10
  %54 = load ptr, ptr %9, align 8, !tbaa !20
  %55 = getelementptr inbounds nuw %struct.ARKodeMRIStepMemRec, ptr %54, i32 0, i32 58
  %56 = load i64, ptr %55, align 8, !tbaa !51
  %57 = add nsw i64 %56, 1
  store i64 %57, ptr %55, align 8, !tbaa !51
  %58 = load i32, ptr %10, align 4, !tbaa !10
  %59 = icmp slt i32 %58, 0
  br i1 %59, label %60, label %61

60:                                               ; preds = %18
  store i32 -8, ptr %4, align 4
  store i32 1, ptr %11, align 4
  br label %88

61:                                               ; preds = %18
  %62 = load i32, ptr %10, align 4, !tbaa !10
  %63 = icmp sgt i32 %62, 0
  br i1 %63, label %64, label %65

64:                                               ; preds = %61
  store i32 9, ptr %4, align 4
  store i32 1, ptr %11, align 4
  br label %88

65:                                               ; preds = %61
  %66 = load ptr, ptr %9, align 8, !tbaa !20
  %67 = getelementptr inbounds nuw %struct.ARKodeMRIStepMemRec, ptr %66, i32 0, i32 29
  %68 = load double, ptr %67, align 8, !tbaa !54
  %69 = load ptr, ptr %9, align 8, !tbaa !20
  %70 = getelementptr inbounds nuw %struct.ARKodeMRIStepMemRec, ptr %69, i32 0, i32 8
  %71 = load ptr, ptr %70, align 8, !tbaa !47
  %72 = load ptr, ptr %9, align 8, !tbaa !20
  %73 = getelementptr inbounds nuw %struct.ARKodeMRIStepMemRec, ptr %72, i32 0, i32 18
  %74 = load ptr, ptr %73, align 8, !tbaa !48
  %75 = load ptr, ptr %9, align 8, !tbaa !20
  %76 = getelementptr inbounds nuw %struct.ARKodeMRIStepMemRec, ptr %75, i32 0, i32 25
  %77 = load i32, ptr %76, align 8, !tbaa !49
  %78 = sext i32 %77 to i64
  %79 = getelementptr inbounds i32, ptr %74, i64 %78
  %80 = load i32, ptr %79, align 4, !tbaa !10
  %81 = sext i32 %80 to i64
  %82 = getelementptr inbounds ptr, ptr %71, i64 %81
  %83 = load ptr, ptr %82, align 8, !tbaa !37
  %84 = load ptr, ptr %9, align 8, !tbaa !20
  %85 = getelementptr inbounds nuw %struct.ARKodeMRIStepMemRec, ptr %84, i32 0, i32 22
  %86 = load ptr, ptr %85, align 8, !tbaa !53
  %87 = load ptr, ptr %6, align 8, !tbaa !37
  call void @N_VLinearSum(double noundef %68, ptr noundef %83, double noundef 1.000000e+00, ptr noundef %86, ptr noundef %87)
  store i32 0, ptr %4, align 4
  store i32 1, ptr %11, align 4
  br label %88

88:                                               ; preds = %65, %64, %60, %16
  call void @llvm.lifetime.end.p0(i64 4, ptr %10) #4
  call void @llvm.lifetime.end.p0(i64 8, ptr %9) #4
  call void @llvm.lifetime.end.p0(i64 8, ptr %8) #4
  %89 = load i32, ptr %4, align 4
  ret i32 %89
}