; Function Attrs: nounwind uwtable
define i32 @mriStep_NlsFPFunction(ptr noundef %0, ptr noundef %1, ptr noundef %2) #0 {
  %4 = alloca ptr, align 8
  %5 = alloca ptr, align 8
  call void @llvm.lifetime.start.p0(i64 8, ptr nonnull %4) #5
  call void @llvm.lifetime.start.p0(i64 8, ptr nonnull %5) #5
  %6 = call i32 @mriStep_AccessARKODEStepMem(ptr noundef %2, ptr noundef nonnull @__func__.mriStep_NlsFPFunction, ptr noundef nonnull %4, ptr noundef nonnull %5) #5
  %.not = icmp eq i32 %6, 0
  br i1 %.not, label %7, label %60

7:                                                ; preds = %3
  %8 = load ptr, ptr %5, align 8, !tbaa !14
  %9 = getelementptr inbounds nuw i8, ptr %8, i64 144
  %10 = load ptr, ptr %9, align 8, !tbaa !33
  %11 = load ptr, ptr %4, align 8, !tbaa !34
  %12 = getelementptr inbounds nuw i8, ptr %11, i64 584
  %13 = load ptr, ptr %12, align 8, !tbaa !36
  call void @N_VLinearSum(double noundef 1.000000e+00, ptr noundef %10, double noundef 1.000000e+00, ptr noundef %0, ptr noundef %13) #5
  %14 = load ptr, ptr %5, align 8, !tbaa !14
  %15 = getelementptr inbounds nuw i8, ptr %14, i64 184
  %16 = load ptr, ptr %15, align 8, !tbaa !30
  %17 = load ptr, ptr %4, align 8, !tbaa !34
  %18 = getelementptr inbounds nuw i8, ptr %17, i64 752
  %19 = load double, ptr %18, align 8, !tbaa !42
  %20 = getelementptr inbounds nuw i8, ptr %17, i64 584
  %21 = load ptr, ptr %20, align 8, !tbaa !36
  %22 = getelementptr inbounds nuw i8, ptr %14, i64 48
  %23 = load ptr, ptr %22, align 8, !tbaa !43
  %24 = getelementptr inbounds nuw i8, ptr %14, i64 104
  %25 = load ptr, ptr %24, align 8, !tbaa !44
  %26 = getelementptr inbounds nuw i8, ptr %14, i64 160
  %27 = load i32, ptr %26, align 8, !tbaa !45
  %28 = sext i32 %27 to i64
  %29 = getelementptr inbounds i32, ptr %25, i64 %28
  %30 = load i32, ptr %29, align 4, !tbaa !46
  %31 = sext i32 %30 to i64
  %32 = getelementptr inbounds ptr, ptr %23, i64 %31
  %33 = load ptr, ptr %32, align 8, !tbaa !47
  %34 = getelementptr inbounds nuw i8, ptr %17, i64 16
  %35 = load ptr, ptr %34, align 8, !tbaa !48
  %36 = call i32 %16(double noundef %19, ptr noundef %21, ptr noundef %33, ptr noundef %35) #5
  %37 = load ptr, ptr %5, align 8, !tbaa !14
  %38 = getelementptr inbounds nuw i8, ptr %37, i64 416
  %39 = load i64, ptr %38, align 8, !tbaa !49
  %40 = add nsw i64 %39, 1
  store i64 %40, ptr %38, align 8, !tbaa !49
  %41 = icmp slt i32 %36, 0
  br i1 %41, label %60, label %42

42:                                               ; preds = %7
  %.not9 = icmp eq i32 %36, 0
  br i1 %.not9, label %43, label %60

43:                                               ; preds = %42
  %44 = getelementptr inbounds nuw i8, ptr %37, i64 192
  %45 = load double, ptr %44, align 8, !tbaa !52
  %46 = getelementptr inbounds nuw i8, ptr %37, i64 48
  %47 = load ptr, ptr %46, align 8, !tbaa !43
  %48 = getelementptr inbounds nuw i8, ptr %37, i64 104
  %49 = load ptr, ptr %48, align 8, !tbaa !44
  %50 = getelementptr inbounds nuw i8, ptr %37, i64 160
  %51 = load i32, ptr %50, align 8, !tbaa !45
  %52 = sext i32 %51 to i64
  %53 = getelementptr inbounds i32, ptr %49, i64 %52
  %54 = load i32, ptr %53, align 4, !tbaa !46
  %55 = sext i32 %54 to i64
  %56 = getelementptr inbounds ptr, ptr %47, i64 %55
  %57 = load ptr, ptr %56, align 8, !tbaa !47
  %58 = getelementptr inbounds nuw i8, ptr %37, i64 136
  %59 = load ptr, ptr %58, align 8, !tbaa !51
  call void @N_VLinearSum(double noundef %45, ptr noundef %57, double noundef 1.000000e+00, ptr noundef %59, ptr noundef %1) #5
  br label %60

60:                                               ; preds = %42, %7, %3, %43
  %.0 = phi i32 [ 0, %43 ], [ %6, %3 ], [ -8, %7 ], [ 9, %42 ]
  call void @llvm.lifetime.end.p0(i64 8, ptr nonnull %5) #5
  call void @llvm.lifetime.end.p0(i64 8, ptr nonnull %4) #5
  ret i32 %.0
}